; Function Attrs: nounwind uwtable
define internal ptr @bu_int(ptr readnone captures(none) %0, ptr noundef readonly captures(none) %1, ptr readnone captures(none) %2) #0 {
  br label %4

4:                                                ; preds = %4, %3
  %.08 = phi i64 [ 0, %3 ], [ %9, %4 ]
  %.07 = phi i64 [ 4, %3 ], [ %10, %4 ]
  %.0 = phi ptr [ %1, %3 ], [ %6, %4 ]
  %5 = shl i64 %.08, 8
  %6 = getelementptr i8, ptr %.0, i64 1
  %7 = load i8, ptr %.0, align 1, !tbaa !18
  %8 = zext i8 %7 to i64
  %9 = or disjoint i64 %5, %8
  %10 = add nsw i64 %.07, -1
  %11 = icmp samesign ugt i64 %.07, 1
  br i1 %11, label %4, label %12, !llvm.loop !86

12:                                               ; preds = %4
  %13 = xor i64 %9, 2147483648
  %14 = add i64 %13, -2147483648
  %15 = tail call ptr @PyLong_FromLong(i64 noundef %14) #7
  ret ptr %15
}